; Function Attrs: mustprogress uwtable
define noundef double @_ZN8QuantLib8LossDist20probabilityOfNEventsEiRSt6vectorIdSaIdEE(i32 noundef %k, ptr nocapture noundef nonnull readonly align 8 dereferenceable(24) %p) local_unnamed_addr #3 align 2 personality ptr @__gxx_personality_v0 {
_ZNSt6vectorIdSaIdEED2Ev.exit:
  %ref.tmp = alloca %"class.std::vector", align 8
  call void @llvm.lifetime.start.p0(i64 24, ptr nonnull %ref.tmp) #20
  call void @_ZN8QuantLib8LossDist20probabilityOfNEventsERSt6vectorIdSaIdEE(ptr dead_on_unwind nonnull writable sret(%"class.std::vector") align 8 %ref.tmp, ptr noundef nonnull align 8 dereferenceable(24) %p)
  %conv = sext i32 %k to i64
  %0 = load ptr, ptr %ref.tmp, align 8, !tbaa !3
  %add.ptr.i = getelementptr inbounds nuw double, ptr %0, i64 %conv
  %1 = load double, ptr %add.ptr.i, align 8, !tbaa !8
  %_M_end_of_storage.i.i = getelementptr inbounds nuw i8, ptr %ref.tmp, i64 16
  %2 = load ptr, ptr %_M_end_of_storage.i.i, align 8, !tbaa !26
  %sub.ptr.lhs.cast.i.i = ptrtoint ptr %2 to i64
  %sub.ptr.rhs.cast.i.i = ptrtoint ptr %0 to i64
  %sub.ptr.sub.i.i = sub i64 %sub.ptr.lhs.cast.i.i, %sub.ptr.rhs.cast.i.i
  tail call void @_ZdlPvm(ptr noundef nonnull %0, i64 noundef %sub.ptr.sub.i.i) #23
  call void @llvm.lifetime.end.p0(i64 24, ptr nonnull %ref.tmp) #20
  ret double %1
}